; Function Attrs: mustprogress nounwind willreturn uwtable
define internal noundef i32 @archive_compressor_bzip2_free(ptr noundef captures(none) %0) #4 {
  %2 = getelementptr inbounds nuw i8, ptr %0, i64 72
  %3 = load ptr, ptr %2, align 8, !tbaa !13
  %4 = getelementptr inbounds nuw i8, ptr %3, i64 96
  %5 = load ptr, ptr %4, align 8, !tbaa !26
  tail call void @free(ptr noundef %5) #9
  tail call void @free(ptr noundef %3) #9
  store ptr null, ptr %2, align 8, !tbaa !13
  ret i32 0
}